	.file	"args.cpp"
# GNU C++17 (Ubuntu 11.3.0-1ubuntu1~22.04) version 11.3.0 (x86_64-linux-gnu)
#	compiled by GNU C version 11.3.0, GMP version 6.2.1, MPFR version 4.1.0, MPC version 1.2.1, isl version isl-0.24-GMP

# GGC heuristics: --param ggc-min-expand=100 --param ggc-min-heapsize=131072
# options passed: -mtune=generic -march=x86-64 -fasynchronous-unwind-tables -fstack-protector-strong -fstack-clash-protection -fcf-protection
	.text
	.globl	_Z1fi
	.type	_Z1fi, @function
_Z1fi:
.LFB0:
	.cfi_startproc
	endbr64	
	pushq	%rbp	#
	.cfi_def_cfa_offset 16
	.cfi_offset 6, -16
	movq	%rsp, %rbp	#,
	.cfi_def_cfa_register 6
	movl	%edi, -4(%rbp)	# x, x
# args.cpp:2: 	x = 10;
	movl	$10, -4(%rbp)	#, x
# args.cpp:3: }
	nop	
	popq	%rbp	#
	.cfi_def_cfa 7, 8
	ret	
	.cfi_endproc
.LFE0:
	.size	_Z1fi, .-_Z1fi
	.globl	_Z1gRi
	.type	_Z1gRi, @function
_Z1gRi:
.LFB1:
	.cfi_startproc
	endbr64	
	pushq	%rbp	#
	.cfi_def_cfa_offset 16
	.cfi_offset 6, -16
	movq	%rsp, %rbp	#,
	.cfi_def_cfa_register 6
	movq	%rdi, -8(%rbp)	# x, x
# args.cpp:6: 	x = 10;
	movq	-8(%rbp), %rax	# x, tmp82
	movl	$10, (%rax)	#, *x_2(D)
# args.cpp:7: }
	nop	
	popq	%rbp	#
	.cfi_def_cfa 7, 8
	ret	
	.cfi_endproc
.LFE1:
	.size	_Z1gRi, .-_Z1gRi
	.globl	main
	.type	main, @function
main:
.LFB2:
	.cfi_startproc
	endbr64	
	pushq	%rbp	#
	.cfi_def_cfa_offset 16
	.cfi_offset 6, -16
	movq	%rsp, %rbp	#,
	.cfi_def_cfa_register 6
	subq	$16, %rsp	#,
# args.cpp:9: int main() {
	movq	%fs:40, %rax	# MEM[(<address-space-1> long unsigned int *)40B], tmp87
	movq	%rax, -8(%rbp)	# tmp87, D.2360
	xorl	%eax, %eax	# tmp87
# args.cpp:11: 	f(a);
	movl	-12(%rbp), %eax	# a, a.0_1
	movl	%eax, %edi	# a.0_1,
	call	_Z1fi	#
# args.cpp:12: 	g(a);
	leaq	-12(%rbp), %rax	#, tmp85
	movq	%rax, %rdi	# tmp85,
	call	_Z1gRi	#
# args.cpp:13: }
	movl	$0, %eax	#, _6
	movq	-8(%rbp), %rdx	# D.2360, tmp88
	subq	%fs:40, %rdx	# MEM[(<address-space-1> long unsigned int *)40B], tmp88
	je	.L5	#,
	call	__stack_chk_fail@PLT	#
.L5:
	leave	
	.cfi_def_cfa 7, 8
	ret	
	.cfi_endproc
.LFE2:
	.size	main, .-main
	.ident	"GCC: (Ubuntu 11.3.0-1ubuntu1~22.04) 11.3.0"
	.section	.note.GNU-stack,"",@progbits
	.section	.note.gnu.property,"a"
	.align 8
	.long	1f - 0f
	.long	4f - 1f
	.long	5
0:
	.string	"GNU"
1:
	.align 8
	.long	0xc0000002
	.long	3f - 2f
2:
	.long	0x3
3:
	.align 8
4:
